; Function Attrs: nounwind uwtable
define hidden signext range(i8 0, 2) i8 @nfaExecGough8_testEOD(ptr noundef readonly captures(none) %0, ptr noundef readonly captures(none) %1, ptr noundef readnone captures(none) %2, i64 noundef %3, ptr noundef readonly captures(none) %4, ptr noundef %5) local_unnamed_addr #0 {
  %7 = getelementptr inbounds nuw i8, ptr %1, i64 16
  %8 = load i8, ptr %1, align 1
  %9 = getelementptr inbounds nuw i8, ptr %0, i64 76
  %10 = load i32, ptr %9, align 4
  %11 = zext i32 %10 to i64
  %12 = getelementptr inbounds nuw i8, ptr %0, i64 %11
  %13 = zext i8 %8 to i64
  %14 = getelementptr inbounds nuw %struct.mstate_aux, ptr %12, i64 %13, i32 1
  %15 = load i32, ptr %14, align 4
  %.not.i = icmp eq i32 %15, 0
  br i1 %.not.i, label %goughCheckEOD.exit, label %16

16:                                               ; preds = %6
  %17 = getelementptr inbounds nuw i8, ptr %0, i64 64
  %18 = zext i32 %15 to i64
  %19 = getelementptr inbounds nuw i8, ptr %17, i64 %18
  %20 = getelementptr inbounds i8, ptr %19, i64 -64
  %21 = load i32, ptr %20, align 4
  %.not64.i10.i = icmp eq i32 %21, 0
  br i1 %.not64.i10.i, label %goughCheckEOD.exit, label %.lr.ph.i

.lr.ph.i:                                         ; preds = %16
  %22 = getelementptr inbounds i8, ptr %19, i64 -60
  %wide.trip.count.i = zext i32 %21 to i64
  br label %24

23:                                               ; preds = %33
  %indvars.iv.next.i = add nuw nsw i64 %indvars.iv.i, 1
  %exitcond.not.i = icmp eq i64 %indvars.iv.next.i, %wide.trip.count.i
  br i1 %exitcond.not.i, label %goughCheckEOD.exit, label %24

24:                                               ; preds = %23, %.lr.ph.i
  %indvars.iv.i = phi i64 [ 0, %.lr.ph.i ], [ %indvars.iv.next.i, %23 ]
  %25 = getelementptr inbounds nuw [0 x %struct.gough_report], ptr %22, i64 0, i64 %indvars.iv.i
  %26 = getelementptr inbounds nuw i8, ptr %25, i64 4
  %27 = load i32, ptr %26, align 4
  %28 = icmp eq i32 %27, -1
  br i1 %28, label %33, label %29

29:                                               ; preds = %24
  %30 = zext i32 %27 to i64
  %31 = getelementptr inbounds nuw [1 x i64], ptr %7, i64 0, i64 %30
  %32 = load i64, ptr %31, align 8
  br label %33

33:                                               ; preds = %29, %24
  %34 = phi i64 [ %32, %29 ], [ %3, %24 ]
  %35 = load i32, ptr %25, align 4
  %36 = tail call i32 %4(i64 noundef %34, i64 noundef %3, i32 noundef %35, ptr noundef %5) #14
  %.not63.i.i = icmp eq i32 %36, 0
  br i1 %.not63.i.i, label %goughCheckEOD.exit, label %23

goughCheckEOD.exit:                               ; preds = %23, %33, %6, %16
  %.0.i = phi i8 [ 1, %6 ], [ 1, %16 ], [ 0, %33 ], [ 1, %23 ]
  ret i8 %.0.i
}